; Function Attrs: mustprogress nofree norecurse nosync nounwind willreturn memory(read, inaccessiblemem: none) uwtable
define dso_local noundef i32 @_ZNK4base9Histogram6rangesEj(ptr nocapture noundef nonnull readonly align 8 dereferenceable(81) %this, i32 noundef %i) unnamed_addr #9 align 2 {
entry:
  %bucket_ranges_ = getelementptr inbounds i8, ptr %this, i64 48
  %0 = load ptr, ptr %bucket_ranges_, align 8
  %conv = zext i32 %i to i64
  %1 = load ptr, ptr %0, align 8
  %add.ptr.i.i = getelementptr inbounds i32, ptr %1, i64 %conv
  %2 = load i32, ptr %add.ptr.i.i, align 4
  ret i32 %2
}